target datalayout = "e-m:e-p270:32:32-p271:32:32-p272:64:64-i64:64-i128:128-f80:128-n8:16:32:64-S128"
target triple = "x86_64-pc-linux-gnu"

@hf_mp4ves_config = internal global i32 0, align 4
@ett_mp4ves_config = internal global i32 0, align 4
@.str.167 = private unnamed_addr constant [29 x i8] c"%s:%u: failed assertion \22%s\22\00", align 1
@.str.168 = private unnamed_addr constant [32 x i8] c"epan/dissectors/packet-mp4ves.c\00", align 1
@.str.169 = private unnamed_addr constant [5 x i8] c"actx\00", align 1

; Function Attrs: null_pointer_is_valid sspstrong uwtable
define internal i32 @dissect_mp4ves_config(ptr noundef %0, ptr noundef %1, ptr noundef %2, ptr noundef %3) #0 {
  %5 = alloca ptr, align 8
  %6 = alloca ptr, align 8
  %7 = alloca ptr, align 8
  %8 = alloca ptr, align 8
  %9 = alloca ptr, align 8
  %10 = alloca ptr, align 8
  store ptr %0, ptr %5, align 8
  store ptr %1, ptr %6, align 8
  store ptr %2, ptr %7, align 8
  store ptr %3, ptr %8, align 8
  call void @llvm.lifetime.start.p0(i64 8, ptr %9) #6
  call void @llvm.lifetime.start.p0(i64 8, ptr %10) #6
  %11 = load ptr, ptr %7, align 8
  %12 = load i32, ptr @hf_mp4ves_config, align 4
  %13 = load ptr, ptr %5, align 8
  %14 = call ptr @proto_tree_add_item(ptr noundef %11, i32 noundef %12, ptr noundef %13, i32 noundef 0, i32 noundef -1, i32 noundef 0)
  store ptr %14, ptr %9, align 8
  %15 = load ptr, ptr %9, align 8
  %16 = load i32, ptr @ett_mp4ves_config, align 4
  %17 = call ptr @proto_item_add_subtree(ptr noundef %15, i32 noundef %16)
  store ptr %17, ptr %10, align 8
  %18 = load ptr, ptr %5, align 8
  %19 = load ptr, ptr %6, align 8
  %20 = load ptr, ptr %10, align 8
  %21 = call i32 @dissect_mp4ves_VisualObjectSequence(ptr noundef %18, ptr noundef %19, ptr noundef %20, i32 noundef 0)
  %22 = load ptr, ptr %5, align 8
  %23 = call i32 @tvb_captured_length(ptr noundef %22)
  call void @llvm.lifetime.end.p0(i64 8, ptr %10) #6
  call void @llvm.lifetime.end.p0(i64 8, ptr %9) #6
  ret i32 %23
}

; Function Attrs: null_pointer_is_valid sspstrong uwtable
define internal i32 @dissect_mp4ves_par_decoderConfigurationInformation(ptr noundef %0, ptr noundef %1, ptr noundef %2, ptr noundef %3) #0 {
  %5 = alloca i32, align 4
  %6 = alloca ptr, align 8
  %7 = alloca ptr, align 8
  %8 = alloca ptr, align 8
  %9 = alloca ptr, align 8
  %10 = alloca ptr, align 8
  %11 = alloca i32, align 4
  store ptr %0, ptr %6, align 8
  store ptr %1, ptr %7, align 8
  store ptr %2, ptr %8, align 8
  store ptr %3, ptr %9, align 8
  call void @llvm.lifetime.start.p0(i64 8, ptr %10) #6
  %12 = load ptr, ptr %9, align 8
  %13 = icmp eq ptr %12, null
  br i1 %13, label %14, label %15

14:                                               ; preds = %4
  store i32 0, ptr %5, align 4
  store i32 1, ptr %11, align 4
  br label %31

15:                                               ; preds = %4
  %16 = load ptr, ptr %9, align 8
  %17 = call ptr @get_asn1_ctx(ptr noundef %16)
  store ptr %17, ptr %10, align 8
  %18 = load ptr, ptr %10, align 8
  %19 = icmp ne ptr %18, null
  br i1 %19, label %20, label %21

20:                                               ; preds = %15
  br label %23

21:                                               ; preds = %15
  call void (ptr, ...) @proto_report_dissector_bug(ptr noundef @.str.167, ptr noundef @.str.168, i32 noundef 831, ptr noundef @.str.169) #7
  unreachable

22:                                               ; No predecessors!
  br label %23

23:                                               ; preds = %22, %20
  %24 = load ptr, ptr %6, align 8
  %25 = load ptr, ptr %7, align 8
  %26 = load ptr, ptr %8, align 8
  %27 = load ptr, ptr %9, align 8
  %28 = call i32 @dissect_mp4ves_config(ptr noundef %24, ptr noundef %25, ptr noundef %26, ptr noundef %27)
  %29 = load ptr, ptr %6, align 8
  %30 = call i32 @tvb_reported_length(ptr noundef %29)
  store i32 %30, ptr %5, align 4
  store i32 1, ptr %11, align 4
  br label %31

31:                                               ; preds = %23, %14
  call void @llvm.lifetime.end.p0(i64 8, ptr %10) #6
  %32 = load i32, ptr %5, align 4
  ret i32 %32
}