; Function Attrs: null_pointer_is_valid sspstrong uwtable
define internal i32 @dissect_mp4ves_par_decoderConfigurationInformation(ptr noundef %0, ptr noundef %1, ptr noundef %2, ptr noundef %3) #0 {
  %5 = icmp eq ptr %3, null
  br i1 %5, label %16, label %6

6:                                                ; preds = %4
  %7 = tail call ptr @get_asn1_ctx(ptr noundef nonnull %3)
  %.not = icmp eq ptr %7, null
  br i1 %.not, label %8, label %9

8:                                                ; preds = %6
  tail call void (ptr, ...) @proto_report_dissector_bug(ptr noundef nonnull @.str.167, ptr noundef nonnull @.str.168, i32 noundef 831, ptr noundef nonnull @.str.169) #4
  unreachable

9:                                                ; preds = %6
  %10 = load i32, ptr @hf_mp4ves_config, align 4
  %11 = tail call ptr @proto_tree_add_item(ptr noundef %2, i32 noundef %10, ptr noundef %0, i32 noundef 0, i32 noundef -1, i32 noundef 0)
  %12 = load i32, ptr @ett_mp4ves_config, align 4
  %13 = tail call ptr @proto_item_add_subtree(ptr noundef %11, i32 noundef %12)
  tail call fastcc void @dissect_mp4ves_VisualObjectSequence(ptr noundef %0, ptr noundef %1, ptr noundef %13)
  %14 = tail call i32 @tvb_captured_length(ptr noundef %0)
  %15 = tail call i32 @tvb_reported_length(ptr noundef %0)
  br label %16

16:                                               ; preds = %4, %9
  %.0 = phi i32 [ %15, %9 ], [ 0, %4 ]
  ret i32 %.0
}